target datalayout = "e-m:e-p270:32:32-p271:32:32-p272:64:64-i64:64-i128:128-f80:128-n8:16:32:64-S128"
target triple = "x86_64-pc-linux-gnu"

; Function Attrs: alwaysinline nounwind willreturn memory(none) uwtable
define internal zeroext i16 @av_bswap16(i16 noundef zeroext %0) #3 {
  %2 = alloca i16, align 2
  store i16 %0, ptr %2, align 2, !tbaa !22
  %3 = load i16, ptr %2, align 2, !tbaa !22
  %4 = zext i16 %3 to i32
  %5 = ashr i32 %4, 8
  %6 = load i16, ptr %2, align 2, !tbaa !22
  %7 = zext i16 %6 to i32
  %8 = shl i32 %7, 8
  %9 = or i32 %5, %8
  %10 = trunc i32 %9 to i16
  store i16 %10, ptr %2, align 2, !tbaa !22
  %11 = load i16, ptr %2, align 2, !tbaa !22
  ret i16 %11
}

; Function Attrs: nounwind uwtable
define void @rgb48tobgr48_bswap(ptr noundef %0, ptr noundef %1, i32 noundef %2) #0 {
  %4 = alloca ptr, align 8
  %5 = alloca ptr, align 8
  %6 = alloca i32, align 4
  %7 = alloca ptr, align 8
  %8 = alloca ptr, align 8
  %9 = alloca i32, align 4
  %10 = alloca i32, align 4
  store ptr %0, ptr %4, align 8, !tbaa !4
  store ptr %1, ptr %5, align 8, !tbaa !4
  store i32 %2, ptr %6, align 4, !tbaa !9
  call void @llvm.lifetime.start.p0(i64 8, ptr %7) #5
  %11 = load ptr, ptr %5, align 8, !tbaa !4
  store ptr %11, ptr %7, align 8, !tbaa !20
  call void @llvm.lifetime.start.p0(i64 8, ptr %8) #5
  %12 = load ptr, ptr %4, align 8, !tbaa !4
  store ptr %12, ptr %8, align 8, !tbaa !20
  call void @llvm.lifetime.start.p0(i64 4, ptr %9) #5
  call void @llvm.lifetime.start.p0(i64 4, ptr %10) #5
  %13 = load i32, ptr %6, align 4, !tbaa !9
  %14 = ashr i32 %13, 1
  store i32 %14, ptr %10, align 4, !tbaa !9
  store i32 0, ptr %9, align 4, !tbaa !9
  br label %15

15:                                               ; preds = %60, %3
  %16 = load i32, ptr %9, align 4, !tbaa !9
  %17 = load i32, ptr %10, align 4, !tbaa !9
  %18 = icmp slt i32 %16, %17
  br i1 %18, label %19, label %63

19:                                               ; preds = %15
  %20 = load ptr, ptr %8, align 8, !tbaa !20
  %21 = load i32, ptr %9, align 4, !tbaa !9
  %22 = add nsw i32 %21, 2
  %23 = sext i32 %22 to i64
  %24 = getelementptr inbounds i16, ptr %20, i64 %23
  %25 = load i16, ptr %24, align 2, !tbaa !22
  %26 = call zeroext i16 @av_bswap16(i16 noundef zeroext %25) #7
  %27 = zext i16 %26 to i32
  %28 = trunc i32 %27 to i16
  %29 = load ptr, ptr %7, align 8, !tbaa !20
  %30 = load i32, ptr %9, align 4, !tbaa !9
  %31 = sext i32 %30 to i64
  %32 = getelementptr inbounds i16, ptr %29, i64 %31
  store i16 %28, ptr %32, align 2, !tbaa !22
  %33 = load ptr, ptr %8, align 8, !tbaa !20
  %34 = load i32, ptr %9, align 4, !tbaa !9
  %35 = add nsw i32 %34, 1
  %36 = sext i32 %35 to i64
  %37 = getelementptr inbounds i16, ptr %33, i64 %36
  %38 = load i16, ptr %37, align 2, !tbaa !22
  %39 = call zeroext i16 @av_bswap16(i16 noundef zeroext %38) #7
  %40 = zext i16 %39 to i32
  %41 = trunc i32 %40 to i16
  %42 = load ptr, ptr %7, align 8, !tbaa !20
  %43 = load i32, ptr %9, align 4, !tbaa !9
  %44 = add nsw i32 %43, 1
  %45 = sext i32 %44 to i64
  %46 = getelementptr inbounds i16, ptr %42, i64 %45
  store i16 %41, ptr %46, align 2, !tbaa !22
  %47 = load ptr, ptr %8, align 8, !tbaa !20
  %48 = load i32, ptr %9, align 4, !tbaa !9
  %49 = sext i32 %48 to i64
  %50 = getelementptr inbounds i16, ptr %47, i64 %49
  %51 = load i16, ptr %50, align 2, !tbaa !22
  %52 = call zeroext i16 @av_bswap16(i16 noundef zeroext %51) #7
  %53 = zext i16 %52 to i32
  %54 = trunc i32 %53 to i16
  %55 = load ptr, ptr %7, align 8, !tbaa !20
  %56 = load i32, ptr %9, align 4, !tbaa !9
  %57 = add nsw i32 %56, 2
  %58 = sext i32 %57 to i64
  %59 = getelementptr inbounds i16, ptr %55, i64 %58
  store i16 %54, ptr %59, align 2, !tbaa !22
  br label %60

60:                                               ; preds = %19
  %61 = load i32, ptr %9, align 4, !tbaa !9
  %62 = add nsw i32 %61, 3
  store i32 %62, ptr %9, align 4, !tbaa !9
  br label %15, !llvm.loop !35

63:                                               ; preds = %15
  call void @llvm.lifetime.end.p0(i64 4, ptr %10) #5
  call void @llvm.lifetime.end.p0(i64 4, ptr %9) #5
  call void @llvm.lifetime.end.p0(i64 8, ptr %8) #5
  call void @llvm.lifetime.end.p0(i64 8, ptr %7) #5
  ret void
}